; Function Attrs: nounwind sspstrong uwtable
define internal noundef i64 @cState_configure(i64 noundef returned %0, i64 noundef %1) #0 {
  %3 = tail call ptr @rb_check_typeddata(i64 noundef %0, ptr noundef nonnull @JSON_Generator_State_type) #22
  %4 = and i64 %1, -5
  %.not4.i = icmp eq i64 %4, 0
  br i1 %.not4.i, label %configure_state.exit, label %5

5:                                                ; preds = %2
  %6 = and i64 %1, 7
  %.not5.i = icmp eq i64 %6, 0
  br i1 %.not5.i, label %7, label %rbimpl_RB_TYPE_P_fastpath.exit.thread.i.i, !prof !22

7:                                                ; preds = %5
  %8 = inttoptr i64 %1 to ptr
  %9 = load i64, ptr %8, align 8, !tbaa !23
  %10 = and i64 %9, 31
  %11 = icmp eq i64 %10, 8
  br i1 %11, label %Check_Type.exit.i, label %rbimpl_RB_TYPE_P_fastpath.exit.thread.i.i, !prof !24

rbimpl_RB_TYPE_P_fastpath.exit.thread.i.i:        ; preds = %7, %5
  tail call void @rb_unexpected_type(i64 noundef %1, i32 noundef 8) #25
  unreachable

Check_Type.exit.i:                                ; preds = %7
  %12 = tail call i64 @rb_hash_size_num(i64 noundef %1) #22
  %.not.i = icmp eq i64 %12, 0
  br i1 %.not.i, label %configure_state.exit, label %13

13:                                               ; preds = %Check_Type.exit.i
  %14 = ptrtoint ptr %3 to i64
  tail call void @rb_hash_foreach(i64 noundef %1, ptr noundef nonnull @configure_state_i, i64 noundef %14) #22
  br label %configure_state.exit

configure_state.exit:                             ; preds = %2, %Check_Type.exit.i, %13
  ret i64 %0
}